target datalayout = "e-m:e-p270:32:32-p271:32:32-p272:64:64-i64:64-f80:128-n8:16:32:64-S128"
target triple = "x86_64-pc-linux-gnu"

@.str = private unnamed_addr constant [3 x i8] c"%d\00", align 1
@.str.1 = private unnamed_addr constant [5 x i8] c"%d%d\00", align 1
@.str.2 = private unnamed_addr constant [4 x i8] c"\0A%d\00", align 1

; Function Attrs: noinline nounwind uwtable
define dso_local i32 @main() #0 {
  %1 = alloca i32, align 4
  %2 = alloca i32, align 4
  %3 = alloca i32, align 4
  %4 = alloca i32, align 4
  %5 = alloca i32, align 4
  %6 = alloca [100 x [100 x i32]], align 16
  %7 = alloca [100 x i32], align 16
  %8 = alloca i32, align 4
  %9 = alloca i32, align 4
  store i32 0, i32* %1, align 4
  %10 = bitcast [100 x i32]* %7 to i8*
  call void @llvm.memset.p0i8.i64(i8* align 16 %10, i8 0, i64 400, i1 false)
  %11 = call i32 (i8*, ...) @__isoc99_scanf(i8* getelementptr inbounds ([3 x i8], [3 x i8]* @.str, i64 0, i64 0), i32* %4)
  store i32 1, i32* %5, align 4
  br label %12

12:                                               ; preds = %120, %0
  %13 = load i32, i32* %5, align 4
  %14 = load i32, i32* %4, align 4
  %15 = icmp sle i32 %13, %14
  br i1 %15, label %16, label %123

16:                                               ; preds = %12
  %17 = call i32 (i8*, ...) @__isoc99_scanf(i8* getelementptr inbounds ([5 x i8], [5 x i8]* @.str.1, i64 0, i64 0), i32* %8, i32* %9)
  store i32 1, i32* %2, align 4
  br label %18

18:                                               ; preds = %39, %16
  %19 = load i32, i32* %2, align 4
  %20 = load i32, i32* %8, align 4
  %21 = icmp sle i32 %19, %20
  br i1 %21, label %22, label %42

22:                                               ; preds = %18
  store i32 1, i32* %3, align 4
  br label %23

23:                                               ; preds = %35, %22
  %24 = load i32, i32* %3, align 4
  %25 = load i32, i32* %9, align 4
  %26 = icmp sle i32 %24, %25
  br i1 %26, label %27, label %38

27:                                               ; preds = %23
  %28 = load i32, i32* %2, align 4
  %29 = sext i32 %28 to i64
  %30 = getelementptr inbounds [100 x [100 x i32]], [100 x [100 x i32]]* %6, i64 0, i64 %29
  %31 = load i32, i32* %3, align 4
  %32 = sext i32 %31 to i64
  %33 = getelementptr inbounds [100 x i32], [100 x i32]* %30, i64 0, i64 %32
  %34 = call i32 (i8*, ...) @__isoc99_scanf(i8* getelementptr inbounds ([3 x i8], [3 x i8]* @.str, i64 0, i64 0), i32* %33)
  br label %35

35:                                               ; preds = %27
  %36 = load i32, i32* %3, align 4
  %37 = add nsw i32 %36, 1
  store i32 %37, i32* %3, align 4
  br label %23

38:                                               ; preds = %23
  br label %39

39:                                               ; preds = %38
  %40 = load i32, i32* %2, align 4
  %41 = add nsw i32 %40, 1
  store i32 %41, i32* %2, align 4
  br label %18

42:                                               ; preds = %18
  store i32 1, i32* %3, align 4
  br label %43

43:                                               ; preds = %61, %42
  %44 = load i32, i32* %3, align 4
  %45 = load i32, i32* %9, align 4
  %46 = icmp sle i32 %44, %45
  br i1 %46, label %47, label %64

47:                                               ; preds = %43
  %48 = load i32, i32* %5, align 4
  %49 = sext i32 %48 to i64
  %50 = getelementptr inbounds [100 x i32], [100 x i32]* %7, i64 0, i64 %49
  %51 = load i32, i32* %50, align 4
  %52 = getelementptr inbounds [100 x [100 x i32]], [100 x [100 x i32]]* %6, i64 0, i64 1
  %53 = load i32, i32* %3, align 4
  %54 = sext i32 %53 to i64
  %55 = getelementptr inbounds [100 x i32], [100 x i32]* %52, i64 0, i64 %54
  %56 = load i32, i32* %55, align 4
  %57 = add nsw i32 %51, %56
  %58 = load i32, i32* %5, align 4
  %59 = sext i32 %58 to i64
  %60 = getelementptr inbounds [100 x i32], [100 x i32]* %7, i64 0, i64 %59
  store i32 %57, i32* %60, align 4
  br label %61

61:                                               ; preds = %47
  %62 = load i32, i32* %3, align 4
  %63 = add nsw i32 %62, 1
  store i32 %63, i32* %3, align 4
  br label %43

64:                                               ; preds = %43
  store i32 1, i32* %3, align 4
  br label %65

65:                                               ; preds = %85, %64
  %66 = load i32, i32* %3, align 4
  %67 = load i32, i32* %9, align 4
  %68 = icmp sle i32 %66, %67
  br i1 %68, label %69, label %88

69:                                               ; preds = %65
  %70 = load i32, i32* %5, align 4
  %71 = sext i32 %70 to i64
  %72 = getelementptr inbounds [100 x i32], [100 x i32]* %7, i64 0, i64 %71
  %73 = load i32, i32* %72, align 4
  %74 = load i32, i32* %8, align 4
  %75 = sext i32 %74 to i64
  %76 = getelementptr inbounds [100 x [100 x i32]], [100 x [100 x i32]]* %6, i64 0, i64 %75
  %77 = load i32, i32* %3, align 4
  %78 = sext i32 %77 to i64
  %79 = getelementptr inbounds [100 x i32], [100 x i32]* %76, i64 0, i64 %78
  %80 = load i32, i32* %79, align 4
  %81 = add nsw i32 %73, %80
  %82 = load i32, i32* %5, align 4
  %83 = sext i32 %82 to i64
  %84 = getelementptr inbounds [100 x i32], [100 x i32]* %7, i64 0, i64 %83
  store i32 %81, i32* %84, align 4
  br label %85

85:                                               ; preds = %69
  %86 = load i32, i32* %3, align 4
  %87 = add nsw i32 %86, 1
  store i32 %87, i32* %3, align 4
  br label %65

88:                                               ; preds = %65
  store i32 2, i32* %2, align 4
  br label %89

89:                                               ; preds = %116, %88
  %90 = load i32, i32* %2, align 4
  %91 = load i32, i32* %8, align 4
  %92 = sub nsw i32 %91, 1
  %93 = icmp sle i32 %90, %92
  br i1 %93, label %94, label %119

94:                                               ; preds = %89
  %95 = load i32, i32* %5, align 4
  %96 = sext i32 %95 to i64
  %97 = getelementptr inbounds [100 x i32], [100 x i32]* %7, i64 0, i64 %96
  %98 = load i32, i32* %97, align 4
  %99 = load i32, i32* %2, align 4
  %100 = sext i32 %99 to i64
  %101 = getelementptr inbounds [100 x [100 x i32]], [100 x [100 x i32]]* %6, i64 0, i64 %100
  %102 = getelementptr inbounds [100 x i32], [100 x i32]* %101, i64 0, i64 1
  %103 = load i32, i32* %102, align 4
  %104 = add nsw i32 %98, %103
  %105 = load i32, i32* %2, align 4
  %106 = sext i32 %105 to i64
  %107 = getelementptr inbounds [100 x [100 x i32]], [100 x [100 x i32]]* %6, i64 0, i64 %106
  %108 = load i32, i32* %9, align 4
  %109 = sext i32 %108 to i64
  %110 = getelementptr inbounds [100 x i32], [100 x i32]* %107, i64 0, i64 %109
  %111 = load i32, i32* %110, align 4
  %112 = add nsw i32 %104, %111
  %113 = load i32, i32* %5, align 4
  %114 = sext i32 %113 to i64
  %115 = getelementptr inbounds [100 x i32], [100 x i32]* %7, i64 0, i64 %114
  store i32 %112, i32* %115, align 4
  br label %116

116:                                              ; preds = %94
  %117 = load i32, i32* %2, align 4
  %118 = add nsw i32 %117, 1
  store i32 %118, i32* %2, align 4
  br label %89

119:                                              ; preds = %89
  br label %120

120:                                              ; preds = %119
  %121 = load i32, i32* %5, align 4
  %122 = add nsw i32 %121, 1
  store i32 %122, i32* %5, align 4
  br label %12

123:                                              ; preds = %12
  %124 = getelementptr inbounds [100 x i32], [100 x i32]* %7, i64 0, i64 1
  %125 = load i32, i32* %124, align 4
  %126 = call i32 (i8*, ...) @printf(i8* getelementptr inbounds ([3 x i8], [3 x i8]* @.str, i64 0, i64 0), i32 %125)
  store i32 2, i32* %5, align 4
  br label %127

127:                                              ; preds = %137, %123
  %128 = load i32, i32* %5, align 4
  %129 = load i32, i32* %4, align 4
  %130 = icmp sle i32 %128, %129
  br i1 %130, label %131, label %140

131:                                              ; preds = %127
  %132 = load i32, i32* %5, align 4
  %133 = sext i32 %132 to i64
  %134 = getelementptr inbounds [100 x i32], [100 x i32]* %7, i64 0, i64 %133
  %135 = load i32, i32* %134, align 4
  %136 = call i32 (i8*, ...) @printf(i8* getelementptr inbounds ([4 x i8], [4 x i8]* @.str.2, i64 0, i64 0), i32 %135)
  br label %137

137:                                              ; preds = %131
  %138 = load i32, i32* %5, align 4
  %139 = add nsw i32 %138, 1
  store i32 %139, i32* %5, align 4
  br label %127

140:                                              ; preds = %127
  ret i32 0
}